target datalayout = "e-m:e-p270:32:32-p271:32:32-p272:64:64-i64:64-i128:128-f80:128-n8:16:32:64-S128"
target triple = "x86_64-pc-linux-gnu"

%struct.PSDSPContext = type { ptr, ptr, ptr, ptr, ptr, ptr, [2 x ptr] }

; Function Attrs: cold nounwind optsize uwtable
define void @ff_psdsp_init(ptr noundef %0) #0 {
  %2 = alloca ptr, align 8
  store ptr %0, ptr %2, align 8, !tbaa !4
  %3 = load ptr, ptr %2, align 8, !tbaa !4
  %4 = getelementptr inbounds nuw %struct.PSDSPContext, ptr %3, i32 0, i32 0
  store ptr @ps_add_squares_c, ptr %4, align 8, !tbaa !9
  %5 = load ptr, ptr %2, align 8, !tbaa !4
  %6 = getelementptr inbounds nuw %struct.PSDSPContext, ptr %5, i32 0, i32 1
  store ptr @ps_mul_pair_single_c, ptr %6, align 8, !tbaa !11
  %7 = load ptr, ptr %2, align 8, !tbaa !4
  %8 = getelementptr inbounds nuw %struct.PSDSPContext, ptr %7, i32 0, i32 2
  store ptr @ps_hybrid_analysis_c, ptr %8, align 8, !tbaa !12
  %9 = load ptr, ptr %2, align 8, !tbaa !4
  %10 = getelementptr inbounds nuw %struct.PSDSPContext, ptr %9, i32 0, i32 3
  store ptr @ps_hybrid_analysis_ileave_c, ptr %10, align 8, !tbaa !13
  %11 = load ptr, ptr %2, align 8, !tbaa !4
  %12 = getelementptr inbounds nuw %struct.PSDSPContext, ptr %11, i32 0, i32 4
  store ptr @ps_hybrid_synthesis_deint_c, ptr %12, align 8, !tbaa !14
  %13 = load ptr, ptr %2, align 8, !tbaa !4
  %14 = getelementptr inbounds nuw %struct.PSDSPContext, ptr %13, i32 0, i32 5
  store ptr @ps_decorrelate_c, ptr %14, align 8, !tbaa !15
  %15 = load ptr, ptr %2, align 8, !tbaa !4
  %16 = getelementptr inbounds nuw %struct.PSDSPContext, ptr %15, i32 0, i32 6
  %17 = getelementptr inbounds [2 x ptr], ptr %16, i64 0, i64 0
  store ptr @ps_stereo_interpolate_c, ptr %17, align 8, !tbaa !16
  %18 = load ptr, ptr %2, align 8, !tbaa !4
  %19 = getelementptr inbounds nuw %struct.PSDSPContext, ptr %18, i32 0, i32 6
  %20 = getelementptr inbounds [2 x ptr], ptr %19, i64 0, i64 1
  store ptr @ps_stereo_interpolate_ipdopd_c, ptr %20, align 8, !tbaa !16
  ret void
}