; Function Attrs: cold mustprogress nofree norecurse nosync nounwind optsize willreturn memory(argmem: write) uwtable
define void @ff_psdsp_init(ptr noundef writeonly captures(none) initializes((0, 64)) %0) local_unnamed_addr #0 {
  store ptr @ps_add_squares_c, ptr %0, align 8, !tbaa !4
  %2 = getelementptr inbounds nuw i8, ptr %0, i64 8
  store ptr @ps_mul_pair_single_c, ptr %2, align 8, !tbaa !9
  %3 = getelementptr inbounds nuw i8, ptr %0, i64 16
  store ptr @ps_hybrid_analysis_c, ptr %3, align 8, !tbaa !10
  %4 = getelementptr inbounds nuw i8, ptr %0, i64 24
  store ptr @ps_hybrid_analysis_ileave_c, ptr %4, align 8, !tbaa !11
  %5 = getelementptr inbounds nuw i8, ptr %0, i64 32
  store ptr @ps_hybrid_synthesis_deint_c, ptr %5, align 8, !tbaa !12
  %6 = getelementptr inbounds nuw i8, ptr %0, i64 40
  store ptr @ps_decorrelate_c, ptr %6, align 8, !tbaa !13
  %7 = getelementptr inbounds nuw i8, ptr %0, i64 48
  store ptr @ps_stereo_interpolate_c, ptr %7, align 8, !tbaa !14
  %8 = getelementptr inbounds nuw i8, ptr %0, i64 56
  store ptr @ps_stereo_interpolate_ipdopd_c, ptr %8, align 8, !tbaa !14
  ret void
}